; Function Attrs: mustprogress uwtable
define internal fastcc void @_ZZ35test_submodule_factory_constructorsRN8pybind117module_EEN10NoisyAllocC2Ei(i32 noundef %0) unnamed_addr #1 align 2 personality ptr @__gxx_personality_v0 {
  %2 = alloca i32, align 4
  %3 = alloca %"class.pybind11::str", align 8
  %4 = alloca %"class.pybind11::str", align 8
  store i32 %0, ptr %2, align 4
  call void @_ZN8pybind113strC2EPKc(ptr noundef nonnull align 8 dereferenceable(8) %4, ptr noundef nonnull @.str.225)
  invoke void @_ZNK8pybind113str6formatIJRiEEES0_DpOT_(ptr dead_on_unwind nonnull writable sret(%"class.pybind11::str") align 8 %3, ptr noundef nonnull align 8 dereferenceable(8) %4, ptr noundef nonnull align 4 dereferenceable(4) %2)
          to label %5 unwind label %23

5:                                                ; preds = %1
  invoke void @_ZN8pybind115printILNS_19return_value_policyE1EJNS_3strEEEEvDpOT0_(ptr noundef nonnull align 8 dereferenceable(8) %3)
          to label %6 unwind label %25

6:                                                ; preds = %5
  %7 = load ptr, ptr %3, align 8
  %.not.i.i.i.i = icmp eq ptr %7, null
  br i1 %.not.i.i.i.i, label %_ZN8pybind113strD2Ev.exit, label %8

8:                                                ; preds = %6
  %9 = load i64, ptr %7, align 8
  %10 = add nsw i64 %9, -1
  store i64 %10, ptr %7, align 8
  %.not.i.i.i.i.i = icmp eq i64 %10, 0
  br i1 %.not.i.i.i.i.i, label %11, label %_ZN8pybind113strD2Ev.exit

11:                                               ; preds = %8
  invoke void @_Py_Dealloc(ptr noundef nonnull %7)
          to label %_ZN8pybind113strD2Ev.exit unwind label %12

12:                                               ; preds = %11
  %13 = landingpad { ptr, i32 }
          catch ptr null
  %14 = extractvalue { ptr, i32 } %13, 0
  call void @__clang_call_terminate(ptr %14) #24
  unreachable

_ZN8pybind113strD2Ev.exit:                        ; preds = %6, %8, %11
  %15 = load ptr, ptr %4, align 8
  %.not.i.i.i.i3 = icmp eq ptr %15, null
  br i1 %.not.i.i.i.i3, label %_ZN8pybind113strD2Ev.exit5, label %16

16:                                               ; preds = %_ZN8pybind113strD2Ev.exit
  %17 = load i64, ptr %15, align 8
  %18 = add nsw i64 %17, -1
  store i64 %18, ptr %15, align 8
  %.not.i.i.i.i.i4 = icmp eq i64 %18, 0
  br i1 %.not.i.i.i.i.i4, label %19, label %_ZN8pybind113strD2Ev.exit5

19:                                               ; preds = %16
  invoke void @_Py_Dealloc(ptr noundef nonnull %15)
          to label %_ZN8pybind113strD2Ev.exit5 unwind label %20

20:                                               ; preds = %19
  %21 = landingpad { ptr, i32 }
          catch ptr null
  %22 = extractvalue { ptr, i32 } %21, 0
  call void @__clang_call_terminate(ptr %22) #24
  unreachable

_ZN8pybind113strD2Ev.exit5:                       ; preds = %_ZN8pybind113strD2Ev.exit, %16, %19
  ret void

23:                                               ; preds = %1
  %24 = landingpad { ptr, i32 }
          cleanup
  br label %27

25:                                               ; preds = %5
  %26 = landingpad { ptr, i32 }
          cleanup
  call void @_ZN8pybind113strD2Ev(ptr noundef nonnull align 8 dereferenceable(8) %3) #23
  br label %27

27:                                               ; preds = %25, %23
  %.pn = phi { ptr, i32 } [ %26, %25 ], [ %24, %23 ]
  call void @_ZN8pybind113strD2Ev(ptr noundef nonnull align 8 dereferenceable(8) %4) #23
  resume { ptr, i32 } %.pn
}